target datalayout = "e-m:e-p270:32:32-p271:32:32-p272:64:64-i64:64-i128:128-f80:128-n8:16:32:64-S128"
target triple = "x86_64-pc-linux-gnu"

%struct.StgInfo = type { i32, i64, i64, i64, %struct._ffi_type, ptr, ptr, ptr, ptr, ptr, ptr, ptr, ptr, ptr, i32, ptr, i32, ptr }
%struct._ffi_type = type { i64, i16, i16, ptr }
%struct.ctypes_state = type { ptr, ptr, ptr, ptr, ptr, ptr, ptr, ptr, ptr, ptr, ptr, ptr, ptr, ptr, ptr, ptr, ptr, ptr, ptr, ptr, ptr, ptr, ptr, ptr, ptr }

; Function Attrs: inlinehint nounwind uwtable
define internal i32 @_stginfo_from_type(ptr noundef %0, ptr noundef %1, ptr noundef %2) #4 {
  %4 = alloca i32, align 4
  %5 = alloca ptr, align 8
  %6 = alloca ptr, align 8
  %7 = alloca ptr, align 8
  %8 = alloca ptr, align 8
  %9 = alloca i32, align 4
  store ptr %0, ptr %5, align 8, !tbaa !3
  store ptr %1, ptr %6, align 8, !tbaa !68
  store ptr %2, ptr %7, align 8, !tbaa !3
  %10 = load ptr, ptr %7, align 8, !tbaa !3
  store ptr null, ptr %10, align 8, !tbaa !3
  %11 = load ptr, ptr %6, align 8, !tbaa !68
  %12 = load ptr, ptr %5, align 8, !tbaa !3
  %13 = getelementptr inbounds nuw %struct.ctypes_state, ptr %12, i32 0, i32 5
  %14 = load ptr, ptr %13, align 8, !tbaa !79
  %15 = call i32 @PyObject_IsInstance(ptr noundef %11, ptr noundef %14)
  %16 = icmp ne i32 %15, 0
  br i1 %16, label %18, label %17

17:                                               ; preds = %3
  store i32 0, ptr %4, align 4
  br label %33

18:                                               ; preds = %3
  call void @llvm.lifetime.start.p0(i64 8, ptr %8) #9
  %19 = load ptr, ptr %6, align 8, !tbaa !68
  %20 = load ptr, ptr %5, align 8, !tbaa !3
  %21 = getelementptr inbounds nuw %struct.ctypes_state, ptr %20, i32 0, i32 5
  %22 = load ptr, ptr %21, align 8, !tbaa !79
  %23 = call ptr @PyObject_GetTypeData(ptr noundef %19, ptr noundef %22)
  store ptr %23, ptr %8, align 8, !tbaa !3
  %24 = load ptr, ptr %8, align 8, !tbaa !3
  %25 = getelementptr inbounds nuw %struct.StgInfo, ptr %24, i32 0, i32 0
  %26 = load i32, ptr %25, align 8, !tbaa !80
  %27 = icmp ne i32 %26, 0
  br i1 %27, label %29, label %28

28:                                               ; preds = %18
  store i32 0, ptr %4, align 4
  store i32 1, ptr %9, align 4
  br label %32

29:                                               ; preds = %18
  %30 = load ptr, ptr %8, align 8, !tbaa !3
  %31 = load ptr, ptr %7, align 8, !tbaa !3
  store ptr %30, ptr %31, align 8, !tbaa !3
  store i32 1, ptr %4, align 4
  store i32 1, ptr %9, align 4
  br label %32

32:                                               ; preds = %29, %28
  call void @llvm.lifetime.end.p0(i64 8, ptr %8) #9
  br label %33

33:                                               ; preds = %32, %17
  %34 = load i32, ptr %4, align 4
  ret i32 %34
}

; Function Attrs: inlinehint nounwind uwtable
define internal i32 @PyStgInfo_FromType(ptr noundef %0, ptr noundef %1, ptr noundef %2) #4 {
  %4 = alloca ptr, align 8
  %5 = alloca ptr, align 8
  %6 = alloca ptr, align 8
  store ptr %0, ptr %4, align 8, !tbaa !3
  store ptr %1, ptr %5, align 8, !tbaa !28
  store ptr %2, ptr %6, align 8, !tbaa !3
  %7 = load ptr, ptr %4, align 8, !tbaa !3
  %8 = load ptr, ptr %5, align 8, !tbaa !28
  %9 = load ptr, ptr %6, align 8, !tbaa !3
  %10 = call i32 @_stginfo_from_type(ptr noundef %7, ptr noundef %8, ptr noundef %9)
  ret i32 %10
}