; Function Attrs: inlinehint nounwind uwtable
define internal fastcc void @PyStgInfo_FromType(ptr noundef readonly captures(none) %0, ptr noundef %1, ptr noundef nonnull writeonly captures(none) initializes((0, 8)) %2) unnamed_addr #6 {
  store ptr null, ptr %2, align 8, !tbaa !53
  %4 = getelementptr inbounds nuw i8, ptr %0, i64 40
  %5 = load ptr, ptr %4, align 8, !tbaa !33
  %6 = tail call i32 @PyObject_IsInstance(ptr noundef %1, ptr noundef %5) #8
  %.not.i = icmp eq i32 %6, 0
  br i1 %.not.i, label %_stginfo_from_type.exit, label %7

7:                                                ; preds = %3
  %8 = load ptr, ptr %4, align 8, !tbaa !33
  %9 = tail call ptr @PyObject_GetTypeData(ptr noundef %1, ptr noundef %8) #8
  %10 = load i32, ptr %9, align 8, !tbaa !35
  %.not8.i = icmp eq i32 %10, 0
  br i1 %.not8.i, label %_stginfo_from_type.exit, label %11

11:                                               ; preds = %7
  store ptr %9, ptr %2, align 8, !tbaa !53
  br label %_stginfo_from_type.exit

_stginfo_from_type.exit:                          ; preds = %3, %7, %11
  ret void
}